target datalayout = "e-m:e-p270:32:32-p271:32:32-p272:64:64-i64:64-i128:128-f80:128-n8:16:32:64-S128"
target triple = "x86_64-pc-linux-gnu"

%struct.H5F_t = type { ptr, ptr, ptr, ptr, i32, ptr, i8, i8, ptr, i32 }
%struct.H5F_shared_t = type { ptr, ptr, ptr, i8, i32, i32, %struct.H5F_mtab_t, ptr, i8, i8, i64, i32, i32, i64, i64, ptr, ptr, %struct.H5AC_cache_config_t, %struct.H5AC_cache_image_config_t, i8, i8, ptr, i64, i32, i8, i64, i64, double, i64, i64, i64, i32, i32, i32, i8, i32, ptr, ptr, ptr, ptr, i8, i8, i8, i64, ptr, ptr, i32, i64, i8, i32, i8, i64, i8, [13 x i32], [13 x i64], [13 x ptr], i8, i64, i64, [7 x i32], [7 x i32], %struct.H5F_blk_aggr_t, %struct.H5F_blk_aggr_t, i64, i64, %struct.H5F_meta_accum_t, i32, i32, [30 x ptr], %struct.H5F_object_flush_t, i8, ptr }
%struct.H5F_mtab_t = type { i32, i32, ptr }
%struct.H5AC_cache_config_t = type { i32, i8, i8, i8, [1025 x i8], i8, i8, i64, double, i64, i64, i64, i32, double, double, i8, i64, i32, double, double, i32, double, double, i8, i64, i32, i8, double, i64, i32 }
%struct.H5AC_cache_image_config_t = type { i32, i8, i8, i32 }
%struct.H5F_blk_aggr_t = type { i64, i64, i64, i64, i64 }
%struct.H5F_meta_accum_t = type { ptr, i64, i64, i64, i64, i64, i8 }
%struct.H5F_object_flush_t = type { ptr, ptr }
%struct.H5F_mount_t = type { ptr, ptr }

@H5F_init_g = external global i8, align 1
@H5_libterm_g = external global i8, align 1
@.str = private unnamed_addr constant [102 x i8] c"generated/home/dtcxzyw/WorkSpace/Projects/compilers/llvm-opt-benchmark/bench/hdf5/hdf5/src/H5Fmount.c\00", align 1
@__func__.H5F__close_mounts = private unnamed_addr constant [18 x i8] c"H5F__close_mounts\00", align 1
@H5E_FILE_g = external global i64, align 8
@H5E_CANTCLOSEOBJ_g = external global i64, align 8
@.str.1 = private unnamed_addr constant [24 x i8] c"can't close child group\00", align 1
@H5E_CANTCLOSEFILE_g = external global i64, align 8
@.str.2 = private unnamed_addr constant [23 x i8] c"can't close child file\00", align 1

; Function Attrs: nounwind uwtable
define i32 @H5F__close_mounts(ptr noundef %0) #0 {
  %2 = alloca ptr, align 8
  %3 = alloca i32, align 4
  %4 = alloca i32, align 4
  %5 = alloca i8, align 1
  store ptr %0, ptr %2, align 8, !tbaa !3
  call void @llvm.lifetime.start.p0(i64 4, ptr %3) #5
  call void @llvm.lifetime.start.p0(i64 4, ptr %4) #5
  store i32 0, ptr %4, align 4, !tbaa !8
  call void @llvm.lifetime.start.p0(i64 1, ptr %5) #5
  store i8 0, ptr %5, align 1, !tbaa !10
  %6 = load i8, ptr @H5F_init_g, align 1, !tbaa !10, !range !12, !noundef !13
  %7 = trunc i8 %6 to i1
  br i1 %7, label %12, label %8

8:                                                ; preds = %1
  %9 = load i8, ptr @H5_libterm_g, align 1, !tbaa !10, !range !12, !noundef !13
  %10 = trunc i8 %9 to i1
  %11 = xor i1 %10, true
  br label %12

12:                                               ; preds = %8, %1
  %13 = phi i1 [ true, %1 ], [ %11, %8 ]
  %14 = xor i1 %13, true
  %15 = xor i1 %14, true
  %16 = zext i1 %15 to i32
  %17 = sext i32 %16 to i64
  %18 = call i64 @llvm.expect.i64(i64 %17, i64 1)
  %19 = icmp ne i64 %18, 0
  br i1 %19, label %20, label %179

20:                                               ; preds = %12
  %21 = load ptr, ptr %2, align 8, !tbaa !3
  %22 = getelementptr inbounds nuw %struct.H5F_t, ptr %21, i32 0, i32 2
  %23 = load ptr, ptr %22, align 8, !tbaa !14
  %24 = getelementptr inbounds nuw %struct.H5F_shared_t, ptr %23, i32 0, i32 6
  %25 = getelementptr inbounds nuw %struct.H5F_mtab_t, ptr %24, i32 0, i32 0
  %26 = load i32, ptr %25, align 8, !tbaa !20
  %27 = sub i32 %26, 1
  store i32 %27, ptr %3, align 4, !tbaa !8
  br label %28

28:                                               ; preds = %174, %20
  %29 = load i32, ptr %3, align 4, !tbaa !8
  %30 = load ptr, ptr %2, align 8, !tbaa !3
  %31 = getelementptr inbounds nuw %struct.H5F_t, ptr %30, i32 0, i32 2
  %32 = load ptr, ptr %31, align 8, !tbaa !14
  %33 = getelementptr inbounds nuw %struct.H5F_shared_t, ptr %32, i32 0, i32 6
  %34 = getelementptr inbounds nuw %struct.H5F_mtab_t, ptr %33, i32 0, i32 0
  %35 = load i32, ptr %34, align 8, !tbaa !20
  %36 = icmp ult i32 %29, %35
  br i1 %36, label %37, label %177

37:                                               ; preds = %28
  %38 = load ptr, ptr %2, align 8, !tbaa !3
  %39 = getelementptr inbounds nuw %struct.H5F_t, ptr %38, i32 0, i32 2
  %40 = load ptr, ptr %39, align 8, !tbaa !14
  %41 = getelementptr inbounds nuw %struct.H5F_shared_t, ptr %40, i32 0, i32 6
  %42 = getelementptr inbounds nuw %struct.H5F_mtab_t, ptr %41, i32 0, i32 2
  %43 = load ptr, ptr %42, align 8, !tbaa !41
  %44 = load i32, ptr %3, align 4, !tbaa !8
  %45 = zext i32 %44 to i64
  %46 = getelementptr inbounds nuw %struct.H5F_mount_t, ptr %43, i64 %45
  %47 = getelementptr inbounds nuw %struct.H5F_mount_t, ptr %46, i32 0, i32 1
  %48 = load ptr, ptr %47, align 8, !tbaa !42
  %49 = getelementptr inbounds nuw %struct.H5F_t, ptr %48, i32 0, i32 8
  %50 = load ptr, ptr %49, align 8, !tbaa !44
  %51 = load ptr, ptr %2, align 8, !tbaa !3
  %52 = icmp eq ptr %50, %51
  br i1 %52, label %53, label %173

53:                                               ; preds = %37
  %54 = load ptr, ptr %2, align 8, !tbaa !3
  %55 = getelementptr inbounds nuw %struct.H5F_t, ptr %54, i32 0, i32 2
  %56 = load ptr, ptr %55, align 8, !tbaa !14
  %57 = getelementptr inbounds nuw %struct.H5F_shared_t, ptr %56, i32 0, i32 6
  %58 = getelementptr inbounds nuw %struct.H5F_mtab_t, ptr %57, i32 0, i32 2
  %59 = load ptr, ptr %58, align 8, !tbaa !41
  %60 = load i32, ptr %3, align 4, !tbaa !8
  %61 = zext i32 %60 to i64
  %62 = getelementptr inbounds nuw %struct.H5F_mount_t, ptr %59, i64 %61
  %63 = getelementptr inbounds nuw %struct.H5F_mount_t, ptr %62, i32 0, i32 1
  %64 = load ptr, ptr %63, align 8, !tbaa !42
  %65 = getelementptr inbounds nuw %struct.H5F_t, ptr %64, i32 0, i32 8
  store ptr null, ptr %65, align 8, !tbaa !44
  %66 = load ptr, ptr %2, align 8, !tbaa !3
  %67 = getelementptr inbounds nuw %struct.H5F_t, ptr %66, i32 0, i32 2
  %68 = load ptr, ptr %67, align 8, !tbaa !14
  %69 = getelementptr inbounds nuw %struct.H5F_shared_t, ptr %68, i32 0, i32 6
  %70 = getelementptr inbounds nuw %struct.H5F_mtab_t, ptr %69, i32 0, i32 2
  %71 = load ptr, ptr %70, align 8, !tbaa !41
  %72 = load i32, ptr %3, align 4, !tbaa !8
  %73 = zext i32 %72 to i64
  %74 = getelementptr inbounds nuw %struct.H5F_mount_t, ptr %71, i64 %73
  %75 = getelementptr inbounds nuw %struct.H5F_mount_t, ptr %74, i32 0, i32 0
  %76 = load ptr, ptr %75, align 8, !tbaa !45
  %77 = call i32 @H5G_close(ptr noundef %76)
  %78 = icmp slt i32 %77, 0
  br i1 %78, label %79, label %98

79:                                               ; preds = %53
  br label %80

80:                                               ; preds = %79
  br label %81

81:                                               ; preds = %80
  br label %82

82:                                               ; preds = %81
  %83 = load i64, ptr @H5E_FILE_g, align 8, !tbaa !46
  %84 = load i64, ptr @H5E_CANTCLOSEOBJ_g, align 8, !tbaa !46
  %85 = call i32 (ptr, ptr, i32, i64, i64, ptr, ...) @H5E_printf_stack(ptr noundef @.str, ptr noundef @__func__.H5F__close_mounts, i32 noundef 57, i64 noundef %83, i64 noundef %84, ptr noundef @.str.1)
  br label %86

86:                                               ; preds = %82
  br label %87

87:                                               ; preds = %86
  store i8 1, ptr %5, align 1, !tbaa !10
  %88 = load i8, ptr %5, align 1, !tbaa !10, !range !12, !noundef !13
  %89 = trunc i8 %88 to i1
  %90 = zext i1 %89 to i8
  store i8 %90, ptr %5, align 1, !tbaa !10
  br label %91

91:                                               ; preds = %87
  br label %92

92:                                               ; preds = %91
  br label %93

93:                                               ; preds = %92
  store i32 -1, ptr %4, align 4, !tbaa !8
  br label %178

94:                                               ; No predecessors!
  br label %95

95:                                               ; preds = %94
  br label %96

96:                                               ; preds = %95
  br label %97

97:                                               ; preds = %96
  br label %98

98:                                               ; preds = %97, %53
  %99 = load ptr, ptr %2, align 8, !tbaa !3
  %100 = getelementptr inbounds nuw %struct.H5F_t, ptr %99, i32 0, i32 2
  %101 = load ptr, ptr %100, align 8, !tbaa !14
  %102 = getelementptr inbounds nuw %struct.H5F_shared_t, ptr %101, i32 0, i32 6
  %103 = getelementptr inbounds nuw %struct.H5F_mtab_t, ptr %102, i32 0, i32 2
  %104 = load ptr, ptr %103, align 8, !tbaa !41
  %105 = load i32, ptr %3, align 4, !tbaa !8
  %106 = zext i32 %105 to i64
  %107 = getelementptr inbounds nuw %struct.H5F_mount_t, ptr %104, i64 %106
  %108 = getelementptr inbounds nuw %struct.H5F_mount_t, ptr %107, i32 0, i32 1
  %109 = load ptr, ptr %108, align 8, !tbaa !42
  %110 = call i32 @H5F_try_close(ptr noundef %109, ptr noundef null)
  %111 = icmp slt i32 %110, 0
  br i1 %111, label %112, label %131

112:                                              ; preds = %98
  br label %113

113:                                              ; preds = %112
  br label %114

114:                                              ; preds = %113
  br label %115

115:                                              ; preds = %114
  %116 = load i64, ptr @H5E_FILE_g, align 8, !tbaa !46
  %117 = load i64, ptr @H5E_CANTCLOSEFILE_g, align 8, !tbaa !46
  %118 = call i32 (ptr, ptr, i32, i64, i64, ptr, ...) @H5E_printf_stack(ptr noundef @.str, ptr noundef @__func__.H5F__close_mounts, i32 noundef 61, i64 noundef %116, i64 noundef %117, ptr noundef @.str.2)
  br label %119

119:                                              ; preds = %115
  br label %120

120:                                              ; preds = %119
  store i8 1, ptr %5, align 1, !tbaa !10
  %121 = load i8, ptr %5, align 1, !tbaa !10, !range !12, !noundef !13
  %122 = trunc i8 %121 to i1
  %123 = zext i1 %122 to i8
  store i8 %123, ptr %5, align 1, !tbaa !10
  br label %124

124:                                              ; preds = %120
  br label %125

125:                                              ; preds = %124
  br label %126

126:                                              ; preds = %125
  store i32 -1, ptr %4, align 4, !tbaa !8
  br label %178

127:                                              ; No predecessors!
  br label %128

128:                                              ; preds = %127
  br label %129

129:                                              ; preds = %128
  br label %130

130:                                              ; preds = %129
  br label %131

131:                                              ; preds = %130, %98
  %132 = load ptr, ptr %2, align 8, !tbaa !3
  %133 = getelementptr inbounds nuw %struct.H5F_t, ptr %132, i32 0, i32 2
  %134 = load ptr, ptr %133, align 8, !tbaa !14
  %135 = getelementptr inbounds nuw %struct.H5F_shared_t, ptr %134, i32 0, i32 6
  %136 = getelementptr inbounds nuw %struct.H5F_mtab_t, ptr %135, i32 0, i32 2
  %137 = load ptr, ptr %136, align 8, !tbaa !41
  %138 = load i32, ptr %3, align 4, !tbaa !8
  %139 = zext i32 %138 to i64
  %140 = getelementptr inbounds nuw %struct.H5F_mount_t, ptr %137, i64 %139
  %141 = load ptr, ptr %2, align 8, !tbaa !3
  %142 = getelementptr inbounds nuw %struct.H5F_t, ptr %141, i32 0, i32 2
  %143 = load ptr, ptr %142, align 8, !tbaa !14
  %144 = getelementptr inbounds nuw %struct.H5F_shared_t, ptr %143, i32 0, i32 6
  %145 = getelementptr inbounds nuw %struct.H5F_mtab_t, ptr %144, i32 0, i32 2
  %146 = load ptr, ptr %145, align 8, !tbaa !41
  %147 = load i32, ptr %3, align 4, !tbaa !8
  %148 = zext i32 %147 to i64
  %149 = getelementptr inbounds nuw %struct.H5F_mount_t, ptr %146, i64 %148
  %150 = getelementptr inbounds %struct.H5F_mount_t, ptr %149, i64 1
  %151 = load ptr, ptr %2, align 8, !tbaa !3
  %152 = getelementptr inbounds nuw %struct.H5F_t, ptr %151, i32 0, i32 2
  %153 = load ptr, ptr %152, align 8, !tbaa !14
  %154 = getelementptr inbounds nuw %struct.H5F_shared_t, ptr %153, i32 0, i32 6
  %155 = getelementptr inbounds nuw %struct.H5F_mtab_t, ptr %154, i32 0, i32 0
  %156 = load i32, ptr %155, align 8, !tbaa !20
  %157 = load i32, ptr %3, align 4, !tbaa !8
  %158 = sub i32 %156, %157
  %159 = sub i32 %158, 1
  %160 = zext i32 %159 to i64
  %161 = mul i64 %160, 16
  call void @llvm.memmove.p0.p0.i64(ptr align 8 %140, ptr align 8 %150, i64 %161, i1 false)
  %162 = load ptr, ptr %2, align 8, !tbaa !3
  %163 = getelementptr inbounds nuw %struct.H5F_t, ptr %162, i32 0, i32 2
  %164 = load ptr, ptr %163, align 8, !tbaa !14
  %165 = getelementptr inbounds nuw %struct.H5F_shared_t, ptr %164, i32 0, i32 6
  %166 = getelementptr inbounds nuw %struct.H5F_mtab_t, ptr %165, i32 0, i32 0
  %167 = load i32, ptr %166, align 8, !tbaa !20
  %168 = add i32 %167, -1
  store i32 %168, ptr %166, align 8, !tbaa !20
  %169 = load ptr, ptr %2, align 8, !tbaa !3
  %170 = getelementptr inbounds nuw %struct.H5F_t, ptr %169, i32 0, i32 9
  %171 = load i32, ptr %170, align 8, !tbaa !47
  %172 = add i32 %171, -1
  store i32 %172, ptr %170, align 8, !tbaa !47
  br label %173

173:                                              ; preds = %131, %37
  br label %174

174:                                              ; preds = %173
  %175 = load i32, ptr %3, align 4, !tbaa !8
  %176 = add i32 %175, -1
  store i32 %176, ptr %3, align 4, !tbaa !8
  br label %28, !llvm.loop !48

177:                                              ; preds = %28
  br label %178

178:                                              ; preds = %177, %126, %93
  br label %179

179:                                              ; preds = %178, %12
  %180 = load i32, ptr %4, align 4, !tbaa !8
  call void @llvm.lifetime.end.p0(i64 1, ptr %5) #5
  call void @llvm.lifetime.end.p0(i64 4, ptr %4) #5
  call void @llvm.lifetime.end.p0(i64 4, ptr %3) #5
  ret i32 %180
}