; Function Attrs: nounwind uwtable
define range(i32 -1, 1) i32 @H5F__close_mounts(ptr noundef captures(address) %0) local_unnamed_addr #0 {
  %2 = load i8, ptr @H5F_init_g, align 1, !tbaa !3, !range !7, !noundef !8
  %3 = trunc nuw i8 %2 to i1
  %4 = load i8, ptr @H5_libterm_g, align 1, !range !7
  %5 = trunc nuw i8 %4 to i1
  %6 = xor i1 %5, true
  %7 = select i1 %3, i1 true, i1 %6
  br i1 %7, label %8, label %.loopexit, !prof !9

8:                                                ; preds = %1
  %9 = getelementptr inbounds nuw i8, ptr %0, i64 16
  %10 = load ptr, ptr %9, align 8, !tbaa !10
  %11 = getelementptr inbounds nuw i8, ptr %10, i64 40
  %12 = load i32, ptr %11, align 8, !tbaa !19
  %.not = icmp eq i32 %12, 0
  br i1 %.not, label %.loopexit, label %.lr.ph

.lr.ph:                                           ; preds = %8
  %.02325 = add i32 %12, -1
  %13 = getelementptr inbounds nuw i8, ptr %0, i64 64
  br label %14

14:                                               ; preds = %.lr.ph, %._crit_edge
  %.pre = phi i32 [ %12, %.lr.ph ], [ %.pre29, %._crit_edge ]
  %15 = phi ptr [ %10, %.lr.ph ], [ %62, %._crit_edge ]
  %.02327 = phi i32 [ %.02325, %.lr.ph ], [ %.023, %._crit_edge ]
  %.023.in26 = phi i32 [ %12, %.lr.ph ], [ %.02327, %._crit_edge ]
  %16 = getelementptr inbounds nuw i8, ptr %15, i64 48
  %17 = load ptr, ptr %16, align 8, !tbaa !40
  %18 = zext i32 %.02327 to i64
  %19 = getelementptr inbounds nuw %struct.H5F_mount_t, ptr %17, i64 %18, i32 1
  %20 = load ptr, ptr %19, align 8, !tbaa !41
  %21 = getelementptr inbounds nuw i8, ptr %20, i64 56
  %22 = load ptr, ptr %21, align 8, !tbaa !43
  %23 = icmp eq ptr %22, %0
  br i1 %23, label %24, label %._crit_edge

24:                                               ; preds = %14
  store ptr null, ptr %21, align 8, !tbaa !43
  %25 = getelementptr inbounds nuw %struct.H5F_mount_t, ptr %17, i64 %18
  %26 = load ptr, ptr %25, align 8, !tbaa !44
  %27 = tail call i32 @H5G_close(ptr noundef %26) #6
  %28 = icmp slt i32 %27, 0
  br i1 %28, label %29, label %33

29:                                               ; preds = %24
  %30 = load i64, ptr @H5E_FILE_g, align 8, !tbaa !45
  %31 = load i64, ptr @H5E_CANTCLOSEOBJ_g, align 8, !tbaa !45
  %32 = tail call i32 (ptr, ptr, i32, i64, i64, ptr, ...) @H5E_printf_stack(ptr noundef nonnull @.str, ptr noundef nonnull @__func__.H5F__close_mounts, i32 noundef 57, i64 noundef %30, i64 noundef %31, ptr noundef nonnull @.str.1) #6
  br label %.loopexit

33:                                               ; preds = %24
  %34 = load ptr, ptr %9, align 8, !tbaa !10
  %35 = getelementptr inbounds nuw i8, ptr %34, i64 48
  %36 = load ptr, ptr %35, align 8, !tbaa !40
  %37 = getelementptr inbounds nuw %struct.H5F_mount_t, ptr %36, i64 %18, i32 1
  %38 = load ptr, ptr %37, align 8, !tbaa !41
  %39 = tail call i32 @H5F_try_close(ptr noundef %38, ptr noundef null) #6
  %40 = icmp slt i32 %39, 0
  br i1 %40, label %41, label %45

41:                                               ; preds = %33
  %42 = load i64, ptr @H5E_FILE_g, align 8, !tbaa !45
  %43 = load i64, ptr @H5E_CANTCLOSEFILE_g, align 8, !tbaa !45
  %44 = tail call i32 (ptr, ptr, i32, i64, i64, ptr, ...) @H5E_printf_stack(ptr noundef nonnull @.str, ptr noundef nonnull @__func__.H5F__close_mounts, i32 noundef 61, i64 noundef %42, i64 noundef %43, ptr noundef nonnull @.str.2) #6
  br label %.loopexit

45:                                               ; preds = %33
  %46 = load ptr, ptr %9, align 8, !tbaa !10
  %47 = getelementptr inbounds nuw i8, ptr %46, i64 40
  %48 = getelementptr inbounds nuw i8, ptr %46, i64 48
  %49 = load ptr, ptr %48, align 8, !tbaa !40
  %50 = getelementptr inbounds nuw %struct.H5F_mount_t, ptr %49, i64 %18
  %51 = getelementptr inbounds nuw i8, ptr %50, i64 16
  %52 = load i32, ptr %47, align 8, !tbaa !19
  %53 = sub i32 %52, %.023.in26
  %54 = zext i32 %53 to i64
  %55 = shl nuw nsw i64 %54, 4
  tail call void @llvm.memmove.p0.p0.i64(ptr align 8 %50, ptr nonnull align 8 %51, i64 %55, i1 false)
  %56 = load ptr, ptr %9, align 8, !tbaa !10
  %57 = getelementptr inbounds nuw i8, ptr %56, i64 40
  %58 = load i32, ptr %57, align 8, !tbaa !19
  %59 = add i32 %58, -1
  store i32 %59, ptr %57, align 8, !tbaa !19
  %60 = load i32, ptr %13, align 8, !tbaa !46
  %61 = add i32 %60, -1
  store i32 %61, ptr %13, align 8, !tbaa !46
  br label %._crit_edge

._crit_edge:                                      ; preds = %14, %45
  %.pre29 = phi i32 [ %59, %45 ], [ %.pre, %14 ]
  %62 = phi ptr [ %56, %45 ], [ %15, %14 ]
  %.023 = add i32 %.02327, -1
  %63 = icmp ult i32 %.023, %.pre29
  br i1 %63, label %14, label %.loopexit, !llvm.loop !47

.loopexit:                                        ; preds = %._crit_edge, %8, %29, %41, %1
  %.0 = phi i32 [ -1, %29 ], [ -1, %41 ], [ 0, %1 ], [ 0, %8 ], [ 0, %._crit_edge ]
  ret i32 %.0
}